target datalayout = "e-m:e-p270:32:32-p271:32:32-p272:64:64-i64:64-i128:128-f80:128-n8:16:32:64-S128"
target triple = "x86_64-pc-linux-gnu"

; Function Attrs: nounwind sspstrong uwtable
define hidden zeroext i16 @FLAC__crc16(ptr noundef %0, i32 noundef %1) #0 {
  %3 = alloca ptr, align 8
  %4 = alloca i32, align 4
  %5 = alloca i16, align 2
  store ptr %0, ptr %3, align 8, !tbaa !3
  store i32 %1, ptr %4, align 4, !tbaa !8
  call void @llvm.lifetime.start.p0(i64 2, ptr %5) #2
  store i16 0, ptr %5, align 2, !tbaa !13
  br label %6

6:                                                ; preds = %9, %2
  %7 = load i32, ptr %4, align 4, !tbaa !8
  %8 = icmp uge i32 %7, 8
  br i1 %8, label %9, label %92

9:                                                ; preds = %6
  %10 = load ptr, ptr %3, align 8, !tbaa !3
  %11 = getelementptr inbounds i8, ptr %10, i64 0
  %12 = load i8, ptr %11, align 1, !tbaa !10
  %13 = zext i8 %12 to i32
  %14 = shl i32 %13, 8
  %15 = load ptr, ptr %3, align 8, !tbaa !3
  %16 = getelementptr inbounds i8, ptr %15, i64 1
  %17 = load i8, ptr %16, align 1, !tbaa !10
  %18 = zext i8 %17 to i32
  %19 = or i32 %14, %18
  %20 = load i16, ptr %5, align 2, !tbaa !13
  %21 = zext i16 %20 to i32
  %22 = xor i32 %21, %19
  %23 = trunc i32 %22 to i16
  store i16 %23, ptr %5, align 2, !tbaa !13
  %24 = load i16, ptr %5, align 2, !tbaa !13
  %25 = zext i16 %24 to i32
  %26 = ashr i32 %25, 8
  %27 = sext i32 %26 to i64
  %28 = getelementptr inbounds [256 x i16], ptr getelementptr inbounds ([8 x [256 x i16]], ptr @FLAC__crc16_table, i64 0, i64 7), i64 0, i64 %27
  %29 = load i16, ptr %28, align 2, !tbaa !13
  %30 = zext i16 %29 to i32
  %31 = load i16, ptr %5, align 2, !tbaa !13
  %32 = zext i16 %31 to i32
  %33 = and i32 %32, 255
  %34 = sext i32 %33 to i64
  %35 = getelementptr inbounds [256 x i16], ptr getelementptr inbounds ([8 x [256 x i16]], ptr @FLAC__crc16_table, i64 0, i64 6), i64 0, i64 %34
  %36 = load i16, ptr %35, align 2, !tbaa !13
  %37 = zext i16 %36 to i32
  %38 = xor i32 %30, %37
  %39 = load ptr, ptr %3, align 8, !tbaa !3
  %40 = getelementptr inbounds i8, ptr %39, i64 2
  %41 = load i8, ptr %40, align 1, !tbaa !10
  %42 = zext i8 %41 to i64
  %43 = getelementptr inbounds nuw [256 x i16], ptr getelementptr inbounds ([8 x [256 x i16]], ptr @FLAC__crc16_table, i64 0, i64 5), i64 0, i64 %42
  %44 = load i16, ptr %43, align 2, !tbaa !13
  %45 = zext i16 %44 to i32
  %46 = xor i32 %38, %45
  %47 = load ptr, ptr %3, align 8, !tbaa !3
  %48 = getelementptr inbounds i8, ptr %47, i64 3
  %49 = load i8, ptr %48, align 1, !tbaa !10
  %50 = zext i8 %49 to i64
  %51 = getelementptr inbounds nuw [256 x i16], ptr getelementptr inbounds ([8 x [256 x i16]], ptr @FLAC__crc16_table, i64 0, i64 4), i64 0, i64 %50
  %52 = load i16, ptr %51, align 2, !tbaa !13
  %53 = zext i16 %52 to i32
  %54 = xor i32 %46, %53
  %55 = load ptr, ptr %3, align 8, !tbaa !3
  %56 = getelementptr inbounds i8, ptr %55, i64 4
  %57 = load i8, ptr %56, align 1, !tbaa !10
  %58 = zext i8 %57 to i64
  %59 = getelementptr inbounds nuw [256 x i16], ptr getelementptr inbounds ([8 x [256 x i16]], ptr @FLAC__crc16_table, i64 0, i64 3), i64 0, i64 %58
  %60 = load i16, ptr %59, align 2, !tbaa !13
  %61 = zext i16 %60 to i32
  %62 = xor i32 %54, %61
  %63 = load ptr, ptr %3, align 8, !tbaa !3
  %64 = getelementptr inbounds i8, ptr %63, i64 5
  %65 = load i8, ptr %64, align 1, !tbaa !10
  %66 = zext i8 %65 to i64
  %67 = getelementptr inbounds nuw [256 x i16], ptr getelementptr inbounds ([8 x [256 x i16]], ptr @FLAC__crc16_table, i64 0, i64 2), i64 0, i64 %66
  %68 = load i16, ptr %67, align 2, !tbaa !13
  %69 = zext i16 %68 to i32
  %70 = xor i32 %62, %69
  %71 = load ptr, ptr %3, align 8, !tbaa !3
  %72 = getelementptr inbounds i8, ptr %71, i64 6
  %73 = load i8, ptr %72, align 1, !tbaa !10
  %74 = zext i8 %73 to i64
  %75 = getelementptr inbounds nuw [256 x i16], ptr getelementptr inbounds ([8 x [256 x i16]], ptr @FLAC__crc16_table, i64 0, i64 1), i64 0, i64 %74
  %76 = load i16, ptr %75, align 2, !tbaa !13
  %77 = zext i16 %76 to i32
  %78 = xor i32 %70, %77
  %79 = load ptr, ptr %3, align 8, !tbaa !3
  %80 = getelementptr inbounds i8, ptr %79, i64 7
  %81 = load i8, ptr %80, align 1, !tbaa !10
  %82 = zext i8 %81 to i64
  %83 = getelementptr inbounds nuw [256 x i16], ptr @FLAC__crc16_table, i64 0, i64 %82
  %84 = load i16, ptr %83, align 2, !tbaa !13
  %85 = zext i16 %84 to i32
  %86 = xor i32 %78, %85
  %87 = trunc i32 %86 to i16
  store i16 %87, ptr %5, align 2, !tbaa !13
  %88 = load ptr, ptr %3, align 8, !tbaa !3
  %89 = getelementptr inbounds i8, ptr %88, i64 8
  store ptr %89, ptr %3, align 8, !tbaa !3
  %90 = load i32, ptr %4, align 4, !tbaa !8
  %91 = sub i32 %90, 8
  store i32 %91, ptr %4, align 4, !tbaa !8
  br label %6, !llvm.loop !15

92:                                               ; preds = %6
  br label %93

93:                                               ; preds = %97, %92
  %94 = load i32, ptr %4, align 4, !tbaa !8
  %95 = add i32 %94, -1
  store i32 %95, ptr %4, align 4, !tbaa !8
  %96 = icmp ne i32 %94, 0
  br i1 %96, label %97, label %115

97:                                               ; preds = %93
  %98 = load i16, ptr %5, align 2, !tbaa !13
  %99 = zext i16 %98 to i32
  %100 = shl i32 %99, 8
  %101 = load i16, ptr %5, align 2, !tbaa !13
  %102 = zext i16 %101 to i32
  %103 = ashr i32 %102, 8
  %104 = load ptr, ptr %3, align 8, !tbaa !3
  %105 = getelementptr inbounds nuw i8, ptr %104, i32 1
  store ptr %105, ptr %3, align 8, !tbaa !3
  %106 = load i8, ptr %104, align 1, !tbaa !10
  %107 = zext i8 %106 to i32
  %108 = xor i32 %103, %107
  %109 = sext i32 %108 to i64
  %110 = getelementptr inbounds [256 x i16], ptr @FLAC__crc16_table, i64 0, i64 %109
  %111 = load i16, ptr %110, align 2, !tbaa !13
  %112 = zext i16 %111 to i32
  %113 = xor i32 %100, %112
  %114 = trunc i32 %113 to i16
  store i16 %114, ptr %5, align 2, !tbaa !13
  br label %93, !llvm.loop !16

115:                                              ; preds = %93
  %116 = load i16, ptr %5, align 2, !tbaa !13
  call void @llvm.lifetime.end.p0(i64 2, ptr %5) #2
  ret i16 %116
}