; Function Attrs: nofree norecurse nosync nounwind sspstrong memory(argmem: read) uwtable
define hidden zeroext i16 @FLAC__crc16(ptr noundef readonly captures(none) %0, i32 noundef %1) local_unnamed_addr #0 {
  %3 = icmp ugt i32 %1, 7
  br i1 %3, label %.lr.ph, label %.preheader

.preheader:                                       ; preds = %.lr.ph, %2
  %.020.lcssa = phi ptr [ %0, %2 ], [ %58, %.lr.ph ]
  %.018.lcssa = phi i32 [ %1, %2 ], [ %59, %.lr.ph ]
  %.0.lcssa = phi i16 [ 0, %2 ], [ %57, %.lr.ph ]
  %.not27 = icmp eq i32 %.018.lcssa, 0
  br i1 %.not27, label %._crit_edge, label %.lr.ph31

.lr.ph:                                           ; preds = %2, %.lr.ph
  %.024 = phi i16 [ %57, %.lr.ph ], [ 0, %2 ]
  %.01823 = phi i32 [ %59, %.lr.ph ], [ %1, %2 ]
  %.02022 = phi ptr [ %58, %.lr.ph ], [ %0, %2 ]
  %4 = load i8, ptr %.02022, align 1, !tbaa !3
  %5 = zext i8 %4 to i16
  %6 = shl nuw i16 %5, 8
  %7 = getelementptr inbounds nuw i8, ptr %.02022, i64 1
  %8 = load i8, ptr %7, align 1, !tbaa !3
  %9 = zext i8 %8 to i16
  %10 = or disjoint i16 %6, %9
  %11 = xor i16 %10, %.024
  %12 = zext i16 %11 to i32
  %13 = lshr i32 %12, 8
  %14 = zext nneg i32 %13 to i64
  %15 = getelementptr inbounds nuw [256 x i16], ptr getelementptr inbounds nuw (i8, ptr @FLAC__crc16_table, i64 3584), i64 0, i64 %14
  %16 = load i16, ptr %15, align 2, !tbaa !8
  %17 = and i32 %12, 255
  %18 = zext nneg i32 %17 to i64
  %19 = getelementptr inbounds nuw [256 x i16], ptr getelementptr inbounds nuw (i8, ptr @FLAC__crc16_table, i64 3072), i64 0, i64 %18
  %20 = load i16, ptr %19, align 2, !tbaa !8
  %21 = xor i16 %20, %16
  %22 = getelementptr inbounds nuw i8, ptr %.02022, i64 2
  %23 = load i8, ptr %22, align 1, !tbaa !3
  %24 = zext i8 %23 to i64
  %25 = getelementptr inbounds nuw [256 x i16], ptr getelementptr inbounds nuw (i8, ptr @FLAC__crc16_table, i64 2560), i64 0, i64 %24
  %26 = load i16, ptr %25, align 2, !tbaa !8
  %27 = xor i16 %21, %26
  %28 = getelementptr inbounds nuw i8, ptr %.02022, i64 3
  %29 = load i8, ptr %28, align 1, !tbaa !3
  %30 = zext i8 %29 to i64
  %31 = getelementptr inbounds nuw [256 x i16], ptr getelementptr inbounds nuw (i8, ptr @FLAC__crc16_table, i64 2048), i64 0, i64 %30
  %32 = load i16, ptr %31, align 2, !tbaa !8
  %33 = xor i16 %27, %32
  %34 = getelementptr inbounds nuw i8, ptr %.02022, i64 4
  %35 = load i8, ptr %34, align 1, !tbaa !3
  %36 = zext i8 %35 to i64
  %37 = getelementptr inbounds nuw [256 x i16], ptr getelementptr inbounds nuw (i8, ptr @FLAC__crc16_table, i64 1536), i64 0, i64 %36
  %38 = load i16, ptr %37, align 2, !tbaa !8
  %39 = xor i16 %33, %38
  %40 = getelementptr inbounds nuw i8, ptr %.02022, i64 5
  %41 = load i8, ptr %40, align 1, !tbaa !3
  %42 = zext i8 %41 to i64
  %43 = getelementptr inbounds nuw [256 x i16], ptr getelementptr inbounds nuw (i8, ptr @FLAC__crc16_table, i64 1024), i64 0, i64 %42
  %44 = load i16, ptr %43, align 2, !tbaa !8
  %45 = xor i16 %39, %44
  %46 = getelementptr inbounds nuw i8, ptr %.02022, i64 6
  %47 = load i8, ptr %46, align 1, !tbaa !3
  %48 = zext i8 %47 to i64
  %49 = getelementptr inbounds nuw [256 x i16], ptr getelementptr inbounds nuw (i8, ptr @FLAC__crc16_table, i64 512), i64 0, i64 %48
  %50 = load i16, ptr %49, align 2, !tbaa !8
  %51 = xor i16 %45, %50
  %52 = getelementptr inbounds nuw i8, ptr %.02022, i64 7
  %53 = load i8, ptr %52, align 1, !tbaa !3
  %54 = zext i8 %53 to i64
  %55 = getelementptr inbounds nuw [256 x i16], ptr @FLAC__crc16_table, i64 0, i64 %54
  %56 = load i16, ptr %55, align 2, !tbaa !8
  %57 = xor i16 %51, %56
  %58 = getelementptr inbounds nuw i8, ptr %.02022, i64 8
  %59 = add i32 %.01823, -8
  %60 = icmp ugt i32 %59, 7
  br i1 %60, label %.lr.ph, label %.preheader, !llvm.loop !10

.lr.ph31:                                         ; preds = %.preheader, %.lr.ph31
  %.130 = phi i16 [ %71, %.lr.ph31 ], [ %.0.lcssa, %.preheader ]
  %.11929 = phi i32 [ %61, %.lr.ph31 ], [ %.018.lcssa, %.preheader ]
  %.12128 = phi ptr [ %64, %.lr.ph31 ], [ %.020.lcssa, %.preheader ]
  %61 = add i32 %.11929, -1
  %62 = shl i16 %.130, 8
  %63 = lshr i16 %.130, 8
  %64 = getelementptr inbounds nuw i8, ptr %.12128, i64 1
  %65 = load i8, ptr %.12128, align 1, !tbaa !3
  %66 = zext i8 %65 to i16
  %67 = xor i16 %63, %66
  %68 = zext nneg i16 %67 to i64
  %69 = getelementptr inbounds nuw [256 x i16], ptr @FLAC__crc16_table, i64 0, i64 %68
  %70 = load i16, ptr %69, align 2, !tbaa !8
  %71 = xor i16 %70, %62
  %.not = icmp eq i32 %61, 0
  br i1 %.not, label %._crit_edge, label %.lr.ph31, !llvm.loop !11

._crit_edge:                                      ; preds = %.lr.ph31, %.preheader
  %.1.lcssa = phi i16 [ %.0.lcssa, %.preheader ], [ %71, %.lr.ph31 ]
  ret i16 %.1.lcssa
}